(dp0
S'hard'
p1
(dp2
S'acc'
p3
(lp4
cnumpy.core.multiarray
scalar
p5
(cnumpy
dtype
p6
(S'f8'
p7
I0
I1
tp8
Rp9
(I3
S'<'
p10
NNNI-1
I-1
I0
tp11
bS'\xa4p=\xfc\xc3\xeb\xd6?'
p12
tp13
Rp14
ag5
(g9
S'\x7fj\xbc$\xea!\xde?'
p15
tp16
Rp17
asS'loss'
p18
(lp19
g5
(g9
S'333\x932\xc0\xfb?'
p20
tp21
Rp22
ag5
(g9
S'\xf0\xa7\xc6\x83\xeb-\xf7?'
p23
tp24
Rp25
asS'val_acc'
p26
(lp27
g5
(g9
S'\xc3\xf5(\xa4{\xf2\xdc?'
p28
tp29
Rp30
ag5
(g9
S'{\x14\xae\xafk\t\xe1?'
p31
tp32
Rp33
asS'val_loss'
p34
(lp35
g5
(g9
S'\xaeG\xe1j\x1e,\xf8?'
p36
tp37
Rp38
ag5
(g9
S'H\xe1z\x9c\x9a\x88\xf4?'
p39
tp40
Rp41
ass.